target datalayout = "e-m:e-p270:32:32-p271:32:32-p272:64:64-i64:64-i128:128-f80:128-n8:16:32:64-S128"
target triple = "x86_64-pc-linux-gnu"

%struct._zval_struct = type { %union._zend_value, %union.anon, %union.anon.2 }
%union._zend_value = type { i64 }
%union.anon = type { i32 }
%union.anon.2 = type { i32 }
%struct._zend_array = type { %struct._zend_refcounted_h, %union.anon.5, i32, %union.anon.7, i32, i32, i32, i32, i64, ptr }
%struct._zend_refcounted_h = type { i32, %union.anon.3 }
%union.anon.3 = type { i32 }
%union.anon.5 = type { i32 }
%union.anon.7 = type { ptr }
%struct._zend_object_handlers = type { i32, ptr, ptr, ptr, ptr, ptr, ptr, ptr, ptr, ptr, ptr, ptr, ptr, ptr, ptr, ptr, ptr, ptr, ptr, ptr, ptr, ptr, ptr, ptr, ptr }
%struct._zend_string = type { %struct._zend_refcounted_h, i64, i64, [1 x i8] }
%struct._zend_resource = type { %struct._zend_refcounted_h, i64, i32, ptr }
%struct._zend_object = type { %struct._zend_refcounted_h, i32, i32, ptr, ptr, ptr, [1 x %struct._zval_struct] }
%struct.anon.0 = type { i8, i8, %union.anon.1 }
%union.anon.1 = type { i16 }
%struct._zend_reference = type { %struct._zend_refcounted_h, %struct._zval_struct, %union.zend_property_info_source_list }
%union.zend_property_info_source_list = type { ptr }

; Function Attrs: alwaysinline nounwind uwtable
define internal i32 @zend_hash_num_elements(ptr noundef %0) #1 {
  %2 = alloca ptr, align 8
  store ptr %0, ptr %2, align 8, !tbaa !84
  %3 = load ptr, ptr %2, align 8, !tbaa !84
  %4 = getelementptr inbounds nuw %struct._zend_array, ptr %3, i32 0, i32 5
  %5 = load i32, ptr %4, align 4, !tbaa !85
  ret i32 %5
}

; Function Attrs: alwaysinline nounwind uwtable
define internal zeroext i8 @zval_get_type(ptr noundef %0) #1 {
  %2 = alloca ptr, align 8
  store ptr %0, ptr %2, align 8, !tbaa !12
  %3 = load ptr, ptr %2, align 8, !tbaa !12
  %4 = getelementptr inbounds nuw %struct._zval_struct, ptr %3, i32 0, i32 1
  %5 = getelementptr inbounds nuw %struct.anon.0, ptr %4, i32 0, i32 0
  %6 = load i8, ptr %5, align 8, !tbaa !11
  ret i8 %6
}

; Function Attrs: alwaysinline nounwind uwtable
define internal zeroext i1 @i_zend_is_true(ptr noundef %0) #1 {
  %2 = alloca ptr, align 8
  %3 = alloca i8, align 1
  store ptr %0, ptr %2, align 8, !tbaa !12
  call void @llvm.lifetime.start.p0(i64 1, ptr %3) #20
  store i8 0, ptr %3, align 1, !tbaa !51
  br label %4

4:                                                ; preds = %92, %1
  %5 = load ptr, ptr %2, align 8, !tbaa !12
  %6 = call zeroext i8 @zval_get_type(ptr noundef %5)
  %7 = zext i8 %6 to i32
  switch i32 %7, label %97 [
    i32 3, label %8
    i32 4, label %9
    i32 5, label %16
    i32 6, label %23
    i32 7, label %48
    i32 8, label %56
    i32 9, label %77
    i32 10, label %92
  ]

8:                                                ; preds = %4
  store i8 1, ptr %3, align 1, !tbaa !51
  br label %98

9:                                                ; preds = %4
  %10 = load ptr, ptr %2, align 8, !tbaa !12
  %11 = getelementptr inbounds nuw %struct._zval_struct, ptr %10, i32 0, i32 0
  %12 = load i64, ptr %11, align 8, !tbaa !11
  %13 = icmp ne i64 %12, 0
  br i1 %13, label %14, label %15

14:                                               ; preds = %9
  store i8 1, ptr %3, align 1, !tbaa !51
  br label %15

15:                                               ; preds = %14, %9
  br label %98

16:                                               ; preds = %4
  %17 = load ptr, ptr %2, align 8, !tbaa !12
  %18 = getelementptr inbounds nuw %struct._zval_struct, ptr %17, i32 0, i32 0
  %19 = load double, ptr %18, align 8, !tbaa !11
  %20 = fcmp une double %19, 0.000000e+00
  br i1 %20, label %21, label %22

21:                                               ; preds = %16
  store i8 1, ptr %3, align 1, !tbaa !51
  br label %22

22:                                               ; preds = %21, %16
  br label %98

23:                                               ; preds = %4
  %24 = load ptr, ptr %2, align 8, !tbaa !12
  %25 = getelementptr inbounds nuw %struct._zval_struct, ptr %24, i32 0, i32 0
  %26 = load ptr, ptr %25, align 8, !tbaa !11
  %27 = getelementptr inbounds nuw %struct._zend_string, ptr %26, i32 0, i32 2
  %28 = load i64, ptr %27, align 8, !tbaa !16
  %29 = icmp ugt i64 %28, 1
  br i1 %29, label %46, label %30

30:                                               ; preds = %23
  %31 = load ptr, ptr %2, align 8, !tbaa !12
  %32 = getelementptr inbounds nuw %struct._zval_struct, ptr %31, i32 0, i32 0
  %33 = load ptr, ptr %32, align 8, !tbaa !11
  %34 = getelementptr inbounds nuw %struct._zend_string, ptr %33, i32 0, i32 2
  %35 = load i64, ptr %34, align 8, !tbaa !16
  %36 = icmp ne i64 %35, 0
  br i1 %36, label %37, label %47

37:                                               ; preds = %30
  %38 = load ptr, ptr %2, align 8, !tbaa !12
  %39 = getelementptr inbounds nuw %struct._zval_struct, ptr %38, i32 0, i32 0
  %40 = load ptr, ptr %39, align 8, !tbaa !11
  %41 = getelementptr inbounds nuw %struct._zend_string, ptr %40, i32 0, i32 3
  %42 = getelementptr inbounds [1 x i8], ptr %41, i64 0, i64 0
  %43 = load i8, ptr %42, align 8, !tbaa !11
  %44 = sext i8 %43 to i32
  %45 = icmp ne i32 %44, 48
  br i1 %45, label %46, label %47

46:                                               ; preds = %37, %23
  store i8 1, ptr %3, align 1, !tbaa !51
  br label %47

47:                                               ; preds = %46, %37, %30
  br label %98

48:                                               ; preds = %4
  %49 = load ptr, ptr %2, align 8, !tbaa !12
  %50 = getelementptr inbounds nuw %struct._zval_struct, ptr %49, i32 0, i32 0
  %51 = load ptr, ptr %50, align 8, !tbaa !11
  %52 = call i32 @zend_hash_num_elements(ptr noundef %51)
  %53 = icmp ne i32 %52, 0
  br i1 %53, label %54, label %55

54:                                               ; preds = %48
  store i8 1, ptr %3, align 1, !tbaa !51
  br label %55

55:                                               ; preds = %54, %48
  br label %98

56:                                               ; preds = %4
  %57 = load ptr, ptr %2, align 8, !tbaa !12
  %58 = getelementptr inbounds nuw %struct._zval_struct, ptr %57, i32 0, i32 0
  %59 = load ptr, ptr %58, align 8, !tbaa !11
  %60 = getelementptr inbounds nuw %struct._zend_object, ptr %59, i32 0, i32 4
  %61 = load ptr, ptr %60, align 8, !tbaa !22
  %62 = getelementptr inbounds nuw %struct._zend_object_handlers, ptr %61, i32 0, i32 17
  %63 = load ptr, ptr %62, align 8, !tbaa !27
  %64 = icmp eq ptr %63, @zend_std_cast_object_tostring
  %65 = xor i1 %64, true
  %66 = xor i1 %65, true
  %67 = zext i1 %66 to i32
  %68 = sext i32 %67 to i64
  %69 = call i64 @llvm.expect.i64(i64 %68, i64 1)
  %70 = icmp ne i64 %69, 0
  br i1 %70, label %71, label %72

71:                                               ; preds = %56
  store i8 1, ptr %3, align 1, !tbaa !51
  br label %76

72:                                               ; preds = %56
  %73 = load ptr, ptr %2, align 8, !tbaa !12
  %74 = call zeroext i1 @zend_object_is_true(ptr noundef %73)
  %75 = zext i1 %74 to i8
  store i8 %75, ptr %3, align 1, !tbaa !51
  br label %76

76:                                               ; preds = %72, %71
  br label %98

77:                                               ; preds = %4
  %78 = load ptr, ptr %2, align 8, !tbaa !12
  %79 = getelementptr inbounds nuw %struct._zval_struct, ptr %78, i32 0, i32 0
  %80 = load ptr, ptr %79, align 8, !tbaa !11
  %81 = getelementptr inbounds nuw %struct._zend_resource, ptr %80, i32 0, i32 1
  %82 = load i64, ptr %81, align 8, !tbaa !20
  %83 = icmp ne i64 %82, 0
  %84 = xor i1 %83, true
  %85 = xor i1 %84, true
  %86 = zext i1 %85 to i32
  %87 = sext i32 %86 to i64
  %88 = call i64 @llvm.expect.i64(i64 %87, i64 1)
  %89 = icmp ne i64 %88, 0
  br i1 %89, label %90, label %91

90:                                               ; preds = %77
  store i8 1, ptr %3, align 1, !tbaa !51
  br label %91

91:                                               ; preds = %90, %77
  br label %98

92:                                               ; preds = %4
  %93 = load ptr, ptr %2, align 8, !tbaa !12
  %94 = getelementptr inbounds nuw %struct._zval_struct, ptr %93, i32 0, i32 0
  %95 = load ptr, ptr %94, align 8, !tbaa !11
  %96 = getelementptr inbounds nuw %struct._zend_reference, ptr %95, i32 0, i32 1
  store ptr %96, ptr %2, align 8, !tbaa !12
  br label %4

97:                                               ; preds = %4
  br label %98

98:                                               ; preds = %97, %91, %76, %55, %47, %22, %15, %8
  %99 = load i8, ptr %3, align 1, !tbaa !51, !range !53, !noundef !54
  %100 = trunc i8 %99 to i1
  call void @llvm.lifetime.end.p0(i64 1, ptr %3) #20
  ret i1 %100
}

; Function Attrs: nounwind uwtable
define dso_local zeroext i1 @zend_is_true(ptr noundef %0) #0 {
  %2 = alloca ptr, align 8
  store ptr %0, ptr %2, align 8, !tbaa !12
  %3 = load ptr, ptr %2, align 8, !tbaa !12
  %4 = call zeroext i1 @i_zend_is_true(ptr noundef %3)
  ret i1 %4
}