; Function Attrs: nounwind uwtable
define dso_local zeroext i1 @zend_is_true(ptr noundef readonly captures(none) %0) local_unnamed_addr #1 {
  br label %2

2:                                                ; preds = %38, %1
  %.011.i = phi ptr [ %0, %1 ], [ %40, %38 ]
  %3 = getelementptr inbounds nuw i8, ptr %.011.i, i64 8
  %4 = load i8, ptr %3, align 8, !tbaa !4
  switch i8 %4, label %i_zend_is_true.exit.loopexit [
    i8 3, label %i_zend_is_true.exit
    i8 4, label %5
    i8 5, label %7
    i8 6, label %11
    i8 7, label %21
    i8 8, label %25
    i8 9, label %34
    i8 10, label %38
  ]

5:                                                ; preds = %2
  %6 = load i64, ptr %.011.i, align 8, !tbaa !4
  %.not16.i = icmp ne i64 %6, 0
  br label %i_zend_is_true.exit

7:                                                ; preds = %2
  %8 = load double, ptr %.011.i, align 8, !tbaa !4
  %9 = fcmp une double %8, 0.000000e+00
  br i1 %9, label %10, label %i_zend_is_true.exit

10:                                               ; preds = %7
  br label %i_zend_is_true.exit

11:                                               ; preds = %2
  %12 = load ptr, ptr %.011.i, align 8, !tbaa !4
  %13 = getelementptr inbounds nuw i8, ptr %12, i64 16
  %14 = load i64, ptr %13, align 8, !tbaa !10
  %15 = icmp ugt i64 %14, 1
  br i1 %15, label %20, label %16

16:                                               ; preds = %11
  %.not14.i = icmp eq i64 %14, 0
  br i1 %.not14.i, label %i_zend_is_true.exit, label %17

17:                                               ; preds = %16
  %18 = getelementptr inbounds nuw i8, ptr %12, i64 24
  %19 = load i8, ptr %18, align 8, !tbaa !4
  %.not15.i = icmp eq i8 %19, 48
  br i1 %.not15.i, label %i_zend_is_true.exit, label %20

20:                                               ; preds = %17, %11
  br label %i_zend_is_true.exit

21:                                               ; preds = %2
  %22 = load ptr, ptr %.011.i, align 8, !tbaa !4
  %23 = getelementptr inbounds nuw i8, ptr %22, i64 28
  %24 = load i32, ptr %23, align 4, !tbaa !73
  %.not13.i = icmp ne i32 %24, 0
  br label %i_zend_is_true.exit

25:                                               ; preds = %2
  %26 = load ptr, ptr %.011.i, align 8, !tbaa !4
  %27 = getelementptr inbounds nuw i8, ptr %26, i64 24
  %28 = load ptr, ptr %27, align 8, !tbaa !16
  %29 = getelementptr inbounds nuw i8, ptr %28, i64 136
  %30 = load ptr, ptr %29, align 8, !tbaa !21
  %31 = icmp eq ptr %30, @zend_std_cast_object_tostring
  br i1 %31, label %i_zend_is_true.exit, label %32, !prof !38

32:                                               ; preds = %25
  %33 = tail call zeroext i1 @zend_object_is_true(ptr noundef nonnull %.011.i)
  br label %i_zend_is_true.exit

34:                                               ; preds = %2
  %35 = load ptr, ptr %.011.i, align 8, !tbaa !4
  %36 = getelementptr inbounds nuw i8, ptr %35, i64 8
  %37 = load i64, ptr %36, align 8, !tbaa !13
  %.not.i = icmp ne i64 %37, 0
  br label %i_zend_is_true.exit

38:                                               ; preds = %2
  %39 = load ptr, ptr %.011.i, align 8, !tbaa !4
  %40 = getelementptr inbounds nuw i8, ptr %39, i64 8
  br label %2

i_zend_is_true.exit.loopexit:                     ; preds = %2
  br label %i_zend_is_true.exit

i_zend_is_true.exit:                              ; preds = %2, %i_zend_is_true.exit.loopexit, %5, %7, %10, %16, %17, %20, %21, %25, %32, %34
  %.0.i = phi i1 [ %33, %32 ], [ true, %20 ], [ false, %17 ], [ false, %16 ], [ true, %10 ], [ false, %7 ], [ %.not16.i, %5 ], [ %.not13.i, %21 ], [ true, %25 ], [ %.not.i, %34 ], [ false, %i_zend_is_true.exit.loopexit ], [ true, %2 ]
  ret i1 %.0.i
}